; Function Attrs: mustprogress nounwind uwtable
define internal void @_ZNK12_GLOBAL__N_116BuiltinArgResult7genCodeERN4llvm11raw_ostreamERNS_21CodeGenParamAllocatorE(ptr nocapture noundef nonnull readonly align 8 dereferenceable(70) %0, ptr noundef nonnull align 8 dereferenceable(48) %1, ptr nocapture nonnull readnone align 8 %2) unnamed_addr #0 align 2 {
  %4 = getelementptr inbounds nuw i8, ptr %0, i64 68
  %5 = load i8, ptr %4, align 4
  %6 = trunc i8 %5 to i1
  %7 = select i1 %6, ptr @.str.93, ptr @.str.94
  %8 = select i1 %6, i64 24, i64 14
  %9 = getelementptr inbounds nuw i8, ptr %1, i64 24
  %10 = load ptr, ptr %9, align 8
  %11 = getelementptr inbounds nuw i8, ptr %1, i64 32
  %12 = load ptr, ptr %11, align 8
  %13 = ptrtoint ptr %10 to i64
  %14 = ptrtoint ptr %12 to i64
  %15 = sub i64 %13, %14
  %16 = icmp ugt i64 %8, %15
  br i1 %16, label %17, label %19

17:                                               ; preds = %3
  %18 = tail call noundef nonnull align 8 dereferenceable(48) ptr @_ZN4llvm11raw_ostream5writeEPKcm(ptr noundef nonnull align 8 dereferenceable(48) %1, ptr noundef nonnull %7, i64 noundef %8) #22
  %.phi.trans.insert = getelementptr inbounds nuw i8, ptr %18, i64 32
  %.pre = load ptr, ptr %.phi.trans.insert, align 8
  br label %_ZN4llvm11raw_ostreamlsEPKc.exit

19:                                               ; preds = %3
  tail call void @llvm.memcpy.p0.p0.i64(ptr noundef nonnull align 1 dereferenceable(14) %12, ptr noundef nonnull align 1 dereferenceable(14) %7, i64 %8, i1 false)
  %20 = load ptr, ptr %11, align 8
  %21 = getelementptr inbounds i8, ptr %20, i64 %8
  store ptr %21, ptr %11, align 8
  br label %_ZN4llvm11raw_ostreamlsEPKc.exit

_ZN4llvm11raw_ostreamlsEPKc.exit:                 ; preds = %17, %19
  %22 = phi ptr [ %.pre, %17 ], [ %21, %19 ]
  %.0.i.i = phi ptr [ %18, %17 ], [ %1, %19 ]
  %23 = getelementptr inbounds nuw i8, ptr %.0.i.i, i64 24
  %24 = load ptr, ptr %23, align 8
  %25 = ptrtoint ptr %24 to i64
  %26 = ptrtoint ptr %22 to i64
  %27 = sub i64 %25, %26
  %28 = icmp ult i64 %27, 11
  br i1 %28, label %29, label %31

29:                                               ; preds = %_ZN4llvm11raw_ostreamlsEPKc.exit
  %30 = tail call noundef nonnull align 8 dereferenceable(48) ptr @_ZN4llvm11raw_ostream5writeEPKcm(ptr noundef nonnull align 8 dereferenceable(48) %.0.i.i, ptr noundef nonnull @.str.95, i64 noundef 11) #22
  br label %_ZN4llvm11raw_ostreamlsEPKc.exit4

31:                                               ; preds = %_ZN4llvm11raw_ostreamlsEPKc.exit
  %32 = getelementptr inbounds nuw i8, ptr %.0.i.i, i64 32
  tail call void @llvm.memcpy.p0.p0.i64(ptr noundef nonnull align 1 dereferenceable(11) %22, ptr noundef nonnull align 1 dereferenceable(11) @.str.95, i64 11, i1 false)
  %33 = load ptr, ptr %32, align 8
  %34 = getelementptr inbounds i8, ptr %33, i64 11
  store ptr %34, ptr %32, align 8
  br label %_ZN4llvm11raw_ostreamlsEPKc.exit4

_ZN4llvm11raw_ostreamlsEPKc.exit4:                ; preds = %29, %31
  %.0.i.i3 = phi ptr [ %30, %29 ], [ %.0.i.i, %31 ]
  %35 = getelementptr inbounds nuw i8, ptr %0, i64 64
  %36 = load i32, ptr %35, align 8
  %37 = zext i32 %36 to i64
  %38 = tail call noundef nonnull align 8 dereferenceable(48) ptr @_ZN4llvm11raw_ostreamlsEm(ptr noundef nonnull align 8 dereferenceable(48) %.0.i.i3, i64 noundef %37) #22
  %39 = getelementptr inbounds nuw i8, ptr %38, i64 24
  %40 = load ptr, ptr %39, align 8
  %41 = getelementptr inbounds nuw i8, ptr %38, i64 32
  %42 = load ptr, ptr %41, align 8
  %43 = ptrtoint ptr %40 to i64
  %44 = ptrtoint ptr %42 to i64
  %45 = sub i64 %43, %44
  %46 = icmp ult i64 %45, 2
  br i1 %46, label %47, label %49

47:                                               ; preds = %_ZN4llvm11raw_ostreamlsEPKc.exit4
  %48 = tail call noundef nonnull align 8 dereferenceable(48) ptr @_ZN4llvm11raw_ostream5writeEPKcm(ptr noundef nonnull align 8 dereferenceable(48) %38, ptr noundef nonnull @.str.96, i64 noundef 2) #22
  br label %_ZN4llvm11raw_ostreamlsEPKc.exit7

49:                                               ; preds = %_ZN4llvm11raw_ostreamlsEPKc.exit4
  store i16 10537, ptr %42, align 1
  %50 = load ptr, ptr %41, align 8
  %51 = getelementptr inbounds i8, ptr %50, i64 2
  store ptr %51, ptr %41, align 8
  br label %_ZN4llvm11raw_ostreamlsEPKc.exit7

_ZN4llvm11raw_ostreamlsEPKc.exit7:                ; preds = %47, %49
  ret void
}